; Function Attrs: mustprogress uwtable
define dso_local noundef zeroext i1 @_ZNK4i18n12phonenumbers15PhoneNumberUtil19IsPhoneContextValidEN4absl7debian28optionalINSt7__cxx1112basic_stringIcSt11char_traitsIcESaIcEEEEE(ptr nocapture noundef nonnull readonly align 8 dereferenceable(64) %0, ptr noundef %1) local_unnamed_addr #4 align 2 personality ptr @__gxx_personality_v0 {
  %3 = alloca %"class.std::__cxx11::basic_string", align 8
  %4 = alloca %"class.std::__cxx11::basic_string", align 8
  %5 = load i8, ptr %1, align 8
  %6 = and i8 %5, 1
  %.not = icmp eq i8 %6, 0
  br i1 %.not, label %39, label %_ZNKR4absl7debian28optionalINSt7__cxx1112basic_stringIcSt11char_traitsIcESaIcEEEE5valueEv.exit

_ZNKR4absl7debian28optionalINSt7__cxx1112basic_stringIcSt11char_traitsIcESaIcEEEE5valueEv.exit: ; preds = %2
  %7 = getelementptr inbounds i8, ptr %1, i64 8
  %8 = tail call noundef zeroext i1 @_ZNKSt7__cxx1112basic_stringIcSt11char_traitsIcESaIcEE5emptyEv(ptr noundef nonnull align 8 dereferenceable(32) %7) #26
  br i1 %8, label %39, label %9

9:                                                ; preds = %_ZNKR4absl7debian28optionalINSt7__cxx1112basic_stringIcSt11char_traitsIcESaIcEEEE5valueEv.exit
  %10 = getelementptr inbounds i8, ptr %0, i64 24
  %11 = load i8, ptr %1, align 8
  %12 = and i8 %11, 1
  %.not.i9 = icmp eq i8 %12, 0
  br i1 %.not.i9, label %13, label %_ZNKR4absl7debian28optionalINSt7__cxx1112basic_stringIcSt11char_traitsIcESaIcEEEE5valueEv.exit10

13:                                               ; preds = %9
  tail call void @_ZN4absl7debian217optional_internal25throw_bad_optional_accessEv() #31
  unreachable

_ZNKR4absl7debian28optionalINSt7__cxx1112basic_stringIcSt11char_traitsIcESaIcEEEE5valueEv.exit10: ; preds = %9
  %14 = load ptr, ptr %10, align 8
  %15 = getelementptr inbounds i8, ptr %14, i64 688
  %16 = load ptr, ptr %15, align 8
  call void @_ZNSt7__cxx1112basic_stringIcSt11char_traitsIcESaIcEEC1ERKS4_(ptr noundef nonnull align 8 dereferenceable(32) %3, ptr noundef nonnull align 8 dereferenceable(32) %7)
  %17 = load ptr, ptr %16, align 8
  %18 = getelementptr inbounds i8, ptr %17, i64 24
  %19 = load ptr, ptr %18, align 8
  %20 = invoke noundef zeroext i1 %19(ptr noundef nonnull align 8 dereferenceable(8) %16, ptr noundef nonnull align 8 dereferenceable(32) %3, i1 noundef zeroext true, ptr noundef null)
          to label %_ZNK4i18n12phonenumbers6RegExp9FullMatchERKNSt7__cxx1112basic_stringIcSt11char_traitsIcESaIcEEE.exit unwind label %34

_ZNK4i18n12phonenumbers6RegExp9FullMatchERKNSt7__cxx1112basic_stringIcSt11char_traitsIcESaIcEEE.exit: ; preds = %_ZNKR4absl7debian28optionalINSt7__cxx1112basic_stringIcSt11char_traitsIcESaIcEEEE5valueEv.exit10
  br i1 %20, label %_ZNK4i18n12phonenumbers6RegExp9FullMatchERKNSt7__cxx1112basic_stringIcSt11char_traitsIcESaIcEEE.exit14.thread, label %21

21:                                               ; preds = %_ZNK4i18n12phonenumbers6RegExp9FullMatchERKNSt7__cxx1112basic_stringIcSt11char_traitsIcESaIcEEE.exit
  %22 = load ptr, ptr %10, align 8
  %23 = getelementptr inbounds i8, ptr %22, i64 696
  %24 = load ptr, ptr %23, align 8
  %25 = load i8, ptr %1, align 8
  %26 = and i8 %25, 1
  %.not.i11 = icmp eq i8 %26, 0
  br i1 %.not.i11, label %27, label %_ZNKR4absl7debian28optionalINSt7__cxx1112basic_stringIcSt11char_traitsIcESaIcEEEE5valueEv.exit12

27:                                               ; preds = %21
  invoke void @_ZN4absl7debian217optional_internal25throw_bad_optional_accessEv() #31
          to label %.noexc unwind label %34

.noexc:                                           ; preds = %27
  unreachable

_ZNKR4absl7debian28optionalINSt7__cxx1112basic_stringIcSt11char_traitsIcESaIcEEEE5valueEv.exit12: ; preds = %21
  invoke void @_ZNSt7__cxx1112basic_stringIcSt11char_traitsIcESaIcEEC1ERKS4_(ptr noundef nonnull align 8 dereferenceable(32) %4, ptr noundef nonnull align 8 dereferenceable(32) %7)
          to label %28 unwind label %34

28:                                               ; preds = %_ZNKR4absl7debian28optionalINSt7__cxx1112basic_stringIcSt11char_traitsIcESaIcEEEE5valueEv.exit12
  %29 = load ptr, ptr %24, align 8
  %30 = getelementptr inbounds i8, ptr %29, i64 24
  %31 = load ptr, ptr %30, align 8
  %32 = invoke noundef zeroext i1 %31(ptr noundef nonnull align 8 dereferenceable(8) %24, ptr noundef nonnull align 8 dereferenceable(32) %4, i1 noundef zeroext true, ptr noundef null)
          to label %_ZNK4i18n12phonenumbers6RegExp9FullMatchERKNSt7__cxx1112basic_stringIcSt11char_traitsIcESaIcEEE.exit14 unwind label %36

_ZNK4i18n12phonenumbers6RegExp9FullMatchERKNSt7__cxx1112basic_stringIcSt11char_traitsIcESaIcEEE.exit14: ; preds = %28
  call void @_ZNSt7__cxx1112basic_stringIcSt11char_traitsIcESaIcEED1Ev(ptr noundef nonnull align 8 dereferenceable(32) %4) #26
  br label %_ZNK4i18n12phonenumbers6RegExp9FullMatchERKNSt7__cxx1112basic_stringIcSt11char_traitsIcESaIcEEE.exit14.thread

_ZNK4i18n12phonenumbers6RegExp9FullMatchERKNSt7__cxx1112basic_stringIcSt11char_traitsIcESaIcEEE.exit14.thread: ; preds = %_ZNK4i18n12phonenumbers6RegExp9FullMatchERKNSt7__cxx1112basic_stringIcSt11char_traitsIcESaIcEEE.exit, %_ZNK4i18n12phonenumbers6RegExp9FullMatchERKNSt7__cxx1112basic_stringIcSt11char_traitsIcESaIcEEE.exit14
  %33 = phi i1 [ %32, %_ZNK4i18n12phonenumbers6RegExp9FullMatchERKNSt7__cxx1112basic_stringIcSt11char_traitsIcESaIcEEE.exit14 ], [ true, %_ZNK4i18n12phonenumbers6RegExp9FullMatchERKNSt7__cxx1112basic_stringIcSt11char_traitsIcESaIcEEE.exit ]
  call void @_ZNSt7__cxx1112basic_stringIcSt11char_traitsIcESaIcEED1Ev(ptr noundef nonnull align 8 dereferenceable(32) %3) #26
  br label %39

34:                                               ; preds = %27, %_ZNKR4absl7debian28optionalINSt7__cxx1112basic_stringIcSt11char_traitsIcESaIcEEEE5valueEv.exit10, %_ZNKR4absl7debian28optionalINSt7__cxx1112basic_stringIcSt11char_traitsIcESaIcEEEE5valueEv.exit12
  %35 = landingpad { ptr, i32 }
          cleanup
  br label %38

36:                                               ; preds = %28
  %37 = landingpad { ptr, i32 }
          cleanup
  call void @_ZNSt7__cxx1112basic_stringIcSt11char_traitsIcESaIcEED1Ev(ptr noundef nonnull align 8 dereferenceable(32) %4) #26
  br label %38

38:                                               ; preds = %36, %34
  %.pn = phi { ptr, i32 } [ %37, %36 ], [ %35, %34 ]
  call void @_ZNSt7__cxx1112basic_stringIcSt11char_traitsIcESaIcEED1Ev(ptr noundef nonnull align 8 dereferenceable(32) %3) #26
  resume { ptr, i32 } %.pn

39:                                               ; preds = %_ZNKR4absl7debian28optionalINSt7__cxx1112basic_stringIcSt11char_traitsIcESaIcEEEE5valueEv.exit, %2, %_ZNK4i18n12phonenumbers6RegExp9FullMatchERKNSt7__cxx1112basic_stringIcSt11char_traitsIcESaIcEEE.exit14.thread
  %.07 = phi i1 [ %33, %_ZNK4i18n12phonenumbers6RegExp9FullMatchERKNSt7__cxx1112basic_stringIcSt11char_traitsIcESaIcEEE.exit14.thread ], [ true, %2 ], [ false, %_ZNKR4absl7debian28optionalINSt7__cxx1112basic_stringIcSt11char_traitsIcESaIcEEEE5valueEv.exit ]
  ret i1 %.07
}